; Function Attrs: nounwind uwtable
define hidden zeroext i1 @_mi_os_purge_ex(ptr noundef %0, i64 noundef %1, i1 noundef zeroext %2, i64 noundef %3) local_unnamed_addr #1 {
  %5 = alloca i8, align 1
  %6 = tail call i64 @mi_option_get(i32 noundef 15) #7
  %7 = icmp slt i64 %6, 0
  br i1 %7, label %_mi_os_reset.exit, label %8

8:                                                ; preds = %4
  tail call void @_mi_stat_counter_increase(ptr noundef nonnull getelementptr inbounds nuw (i8, ptr @_mi_stats_main, i64 544), i64 noundef 1) #7
  tail call void @_mi_stat_increase(ptr noundef nonnull getelementptr inbounds nuw (i8, ptr @_mi_stats_main, i64 160), i64 noundef %1) #7
  %9 = tail call zeroext i1 @mi_option_is_enabled(i32 noundef 5) #7
  br i1 %9, label %10, label %41

10:                                               ; preds = %8
  %11 = tail call zeroext i1 @_mi_preloading() #7
  br i1 %11, label %41, label %12

12:                                               ; preds = %10
  call void @llvm.lifetime.start.p0(i64 1, ptr nonnull %5) #9
  store i8 1, ptr %5, align 1, !tbaa !24
  tail call void @_mi_stat_decrease(ptr noundef nonnull getelementptr inbounds nuw (i8, ptr @_mi_stats_main, i64 96), i64 noundef %3) #7
  %13 = icmp eq i64 %1, 0
  %14 = icmp eq ptr %0, null
  %or.cond.i.i.i = or i1 %14, %13
  br i1 %or.cond.i.i.i, label %mi_os_decommit_ex.exit, label %15

15:                                               ; preds = %12
  %16 = load i64, ptr @mi_os_mem_config, align 8, !tbaa !12
  %17 = ptrtoint ptr %0 to i64
  %18 = tail call range(i64 0, 65) i64 @llvm.ctpop.i64(i64 %16)
  %19 = icmp samesign ult i64 %18, 2
  %20 = add i64 %17, -1
  %21 = add i64 %20, %16
  %22 = getelementptr inbounds nuw i8, ptr %0, i64 %1
  %23 = ptrtoint ptr %22 to i64
  br i1 %19, label %24, label %28

24:                                               ; preds = %15
  %25 = sub i64 0, %16
  %26 = and i64 %21, %25
  %27 = and i64 %25, %23
  br label %mi_align_down_ptr.exit27.i.i.i

28:                                               ; preds = %15
  %29 = urem i64 %21, %16
  %30 = sub nuw i64 %21, %29
  %31 = urem i64 %23, %16
  %32 = sub nuw i64 %23, %31
  br label %mi_align_down_ptr.exit27.i.i.i

mi_align_down_ptr.exit27.i.i.i:                   ; preds = %28, %24
  %.in.i.i.i = phi i64 [ %26, %24 ], [ %30, %28 ]
  %.in30.i.i.i = phi i64 [ %27, %24 ], [ %32, %28 ]
  %33 = sub i64 %.in30.i.i.i, %.in.i.i.i
  %34 = icmp slt i64 %33, 1
  br i1 %34, label %mi_os_decommit_ex.exit, label %35

35:                                               ; preds = %mi_align_down_ptr.exit27.i.i.i
  %36 = inttoptr i64 %.in.i.i.i to ptr
  store i8 1, ptr %5, align 1, !tbaa !24
  %37 = call i32 @_mi_prim_decommit(ptr noundef %36, i64 noundef %33, ptr noundef nonnull %5) #7
  %.not.i = icmp eq i32 %37, 0
  br i1 %.not.i, label %mi_os_decommit_ex.exit, label %38

38:                                               ; preds = %35
  call void (ptr, ...) @_mi_warning_message(ptr noundef nonnull @.str.10, i32 noundef %37, i32 noundef %37, ptr noundef %36, i64 noundef %33) #7
  br label %mi_os_decommit_ex.exit

mi_os_decommit_ex.exit:                           ; preds = %12, %mi_align_down_ptr.exit27.i.i.i, %35, %38
  %39 = load i8, ptr %5, align 1, !tbaa !24, !range !9, !noundef !10
  %40 = trunc nuw i8 %39 to i1
  call void @llvm.lifetime.end.p0(i64 1, ptr nonnull %5) #9
  br label %_mi_os_reset.exit

41:                                               ; preds = %10, %8
  br i1 %2, label %42, label %_mi_os_reset.exit

42:                                               ; preds = %41
  %43 = icmp eq i64 %1, 0
  %44 = icmp eq ptr %0, null
  %or.cond.i.i.i7 = or i1 %44, %43
  br i1 %or.cond.i.i.i7, label %_mi_os_reset.exit, label %45

45:                                               ; preds = %42
  %46 = load i64, ptr @mi_os_mem_config, align 8, !tbaa !12
  %47 = ptrtoint ptr %0 to i64
  %48 = tail call range(i64 0, 65) i64 @llvm.ctpop.i64(i64 %46)
  %49 = icmp samesign ult i64 %48, 2
  %50 = add i64 %47, -1
  %51 = add i64 %50, %46
  %52 = getelementptr inbounds nuw i8, ptr %0, i64 %1
  %53 = ptrtoint ptr %52 to i64
  br i1 %49, label %54, label %58

54:                                               ; preds = %45
  %55 = sub i64 0, %46
  %56 = and i64 %51, %55
  %57 = and i64 %55, %53
  br label %mi_align_down_ptr.exit27.i.i.i8

58:                                               ; preds = %45
  %59 = urem i64 %51, %46
  %60 = sub nuw i64 %51, %59
  %61 = urem i64 %53, %46
  %62 = sub nuw i64 %53, %61
  br label %mi_align_down_ptr.exit27.i.i.i8

mi_align_down_ptr.exit27.i.i.i8:                  ; preds = %58, %54
  %.in.i.i.i9 = phi i64 [ %56, %54 ], [ %60, %58 ]
  %.in30.i.i.i10 = phi i64 [ %57, %54 ], [ %62, %58 ]
  %63 = sub i64 %.in30.i.i.i10, %.in.i.i.i9
  %64 = icmp slt i64 %63, 1
  br i1 %64, label %_mi_os_reset.exit, label %65

65:                                               ; preds = %mi_align_down_ptr.exit27.i.i.i8
  %66 = inttoptr i64 %.in.i.i.i9 to ptr
  tail call void @_mi_stat_increase(ptr noundef nonnull getelementptr inbounds nuw (i8, ptr @_mi_stats_main, i64 128), i64 noundef %63) #7
  tail call void @_mi_stat_counter_increase(ptr noundef nonnull getelementptr inbounds nuw (i8, ptr @_mi_stats_main, i64 528), i64 noundef 1) #7
  %67 = tail call i32 @_mi_prim_reset(ptr noundef %66, i64 noundef %63) #7
  %.not.i11 = icmp eq i32 %67, 0
  br i1 %.not.i11, label %_mi_os_reset.exit, label %68

68:                                               ; preds = %65
  tail call void (ptr, ...) @_mi_warning_message(ptr noundef nonnull @.str.1, i32 noundef %67, i32 noundef %67, ptr noundef %66, i64 noundef %63) #7
  br label %_mi_os_reset.exit

_mi_os_reset.exit:                                ; preds = %68, %65, %mi_align_down_ptr.exit27.i.i.i8, %42, %41, %4, %mi_os_decommit_ex.exit
  %.0 = phi i1 [ %40, %mi_os_decommit_ex.exit ], [ false, %4 ], [ false, %41 ], [ false, %42 ], [ false, %mi_align_down_ptr.exit27.i.i.i8 ], [ false, %65 ], [ false, %68 ]
  ret i1 %.0
}